; Function Attrs: mustprogress nounwind uwtable
define dso_local void @_ZN4llvm16ValueSymbolTable13reinsertValueEPNS_5ValueE(ptr noundef nonnull align 8 dereferenceable(32) %0, ptr noundef nonnull %1) local_unnamed_addr #0 align 2 {
  %3 = alloca %"class.llvm::SmallString", align 8
  %4 = tail call noundef ptr @_ZNK4llvm5Value12getValueNameEv(ptr noundef nonnull align 8 dereferenceable(24) %1) #8
  %5 = getelementptr inbounds nuw i8, ptr %4, i64 16
  %6 = load i64, ptr %4, align 8
  %7 = tail call noundef i32 @_ZN4llvm13StringMapImpl4hashENS_9StringRefE(ptr nonnull %5, i64 %6) #8
  %8 = tail call noundef i32 @_ZN4llvm13StringMapImpl15LookupBucketForENS_9StringRefEj(ptr noundef nonnull align 8 dereferenceable(24) %0, ptr nonnull %5, i64 %6, i32 noundef %7) #8
  %9 = load ptr, ptr %0, align 8
  %10 = zext i32 %8 to i64
  %11 = getelementptr inbounds nuw ptr, ptr %9, i64 %10
  %12 = load ptr, ptr %11, align 8
  %magicptr.i = ptrtoint ptr %12 to i64
  switch i64 %magicptr.i, label %_ZN4llvm9StringMapIPNS_5ValueENS_15MallocAllocatorEE6insertEPNS_14StringMapEntryIS2_EE.exit [
    i64 0, label %_ZN4llvm9StringMapIPNS_5ValueENS_15MallocAllocatorEE6insertEPNS_14StringMapEntryIS2_EE.exit.thread
    i64 -8, label %13
  ]

13:                                               ; preds = %2
  %14 = getelementptr inbounds nuw i8, ptr %0, i64 16
  %15 = load i32, ptr %14, align 8
  %16 = add i32 %15, -1
  store i32 %16, ptr %14, align 8
  br label %_ZN4llvm9StringMapIPNS_5ValueENS_15MallocAllocatorEE6insertEPNS_14StringMapEntryIS2_EE.exit.thread

_ZN4llvm9StringMapIPNS_5ValueENS_15MallocAllocatorEE6insertEPNS_14StringMapEntryIS2_EE.exit.thread: ; preds = %2, %13
  store ptr %4, ptr %11, align 8
  %17 = getelementptr inbounds nuw i8, ptr %0, i64 12
  %18 = load i32, ptr %17, align 4
  %19 = add i32 %18, 1
  store i32 %19, ptr %17, align 4
  %20 = tail call noundef i32 @_ZN4llvm13StringMapImpl11RehashTableEj(ptr noundef nonnull align 8 dereferenceable(24) %0, i32 noundef 0) #8
  br label %_ZN4llvm11SmallStringILj256EED2Ev.exit

_ZN4llvm9StringMapIPNS_5ValueENS_15MallocAllocatorEE6insertEPNS_14StringMapEntryIS2_EE.exit: ; preds = %2
  %21 = tail call { ptr, i64 } @_ZNK4llvm5Value7getNameEv(ptr noundef nonnull align 8 dereferenceable(24) %1) #8
  %22 = extractvalue { ptr, i64 } %21, 0
  %23 = tail call { ptr, i64 } @_ZNK4llvm5Value7getNameEv(ptr noundef nonnull align 8 dereferenceable(24) %1) #8
  %24 = extractvalue { ptr, i64 } %23, 0
  %25 = extractvalue { ptr, i64 } %23, 1
  %26 = getelementptr inbounds i8, ptr %24, i64 %25
  %27 = getelementptr inbounds nuw i8, ptr %3, i64 24
  call void @_ZN4llvm15SmallVectorBaseImEC2EPvm(ptr noundef nonnull align 8 dereferenceable(280) %3, ptr noundef nonnull %27, i64 noundef 256) #8
  call void @_ZN4llvm15SmallVectorImplIcE6appendIPKcvEEvT_S5_(ptr noundef nonnull align 8 dereferenceable(280) %3, ptr noundef %22, ptr noundef %26)
  %28 = call noundef ptr @_ZNK4llvm5Value12getValueNameEv(ptr noundef nonnull align 8 dereferenceable(24) %1) #8
  %29 = load i64, ptr %28, align 8
  %30 = add i64 %29, 17
  call void @_ZN4llvm17deallocate_bufferEPvmm(ptr noundef nonnull align 8 dereferenceable(16) %28, i64 noundef %30, i64 noundef 8) #8
  %31 = call noundef ptr @_ZN4llvm16ValueSymbolTable14makeUniqueNameEPNS_5ValueERNS_11SmallStringILj256EEE(ptr noundef nonnull align 8 dereferenceable(32) %0, ptr noundef nonnull %1, ptr noundef nonnull align 8 dereferenceable(280) %3)
  call void @_ZN4llvm5Value12setValueNameEPNS_14StringMapEntryIPS0_EE(ptr noundef nonnull align 8 dereferenceable(24) %1, ptr noundef %31) #8
  %32 = call noundef i64 @_ZNK4llvm15SmallVectorBaseImE4sizeEv(ptr noundef nonnull align 8 dereferenceable(280) %3) #8
  %33 = load ptr, ptr %3, align 8
  %34 = icmp eq ptr %33, %27
  br i1 %34, label %_ZN4llvm11SmallStringILj256EED2Ev.exit, label %35

35:                                               ; preds = %_ZN4llvm9StringMapIPNS_5ValueENS_15MallocAllocatorEE6insertEPNS_14StringMapEntryIS2_EE.exit
  call void @free(ptr noundef %33) #8
  br label %_ZN4llvm11SmallStringILj256EED2Ev.exit

_ZN4llvm11SmallStringILj256EED2Ev.exit:           ; preds = %35, %_ZN4llvm9StringMapIPNS_5ValueENS_15MallocAllocatorEE6insertEPNS_14StringMapEntryIS2_EE.exit, %_ZN4llvm9StringMapIPNS_5ValueENS_15MallocAllocatorEE6insertEPNS_14StringMapEntryIS2_EE.exit.thread
  ret void
}